; Function Attrs: mustprogress uwtable
define noundef i32 @_Z26completeTprDeserializationP26PartialDeserializedTprFileP10t_inputrecP7t_statePA3_fS6_P10gmx_mtop_t(ptr nocapture noundef readonly %0, ptr noundef %1, ptr noundef %2, ptr noundef %3, ptr noundef %4, ptr noundef %5) local_unnamed_addr #5 personality ptr @__gxx_personality_v0 {
  %7 = alloca %"class.gmx::InMemoryDeserializer", align 8
  %8 = getelementptr inbounds i8, ptr %0, i64 48
  %9 = load ptr, ptr %8, align 8
  %10 = getelementptr inbounds i8, ptr %0, i64 56
  %11 = load ptr, ptr %10, align 8
  %12 = ptrtoint ptr %11 to i64
  %13 = ptrtoint ptr %9 to i64
  %14 = sub i64 %12, %13
  %15 = getelementptr inbounds i8, ptr %9, i64 %14
  %16 = getelementptr inbounds i8, ptr %0, i64 40
  %17 = load i8, ptr %16, align 8
  %18 = trunc i8 %17 to i1
  call void @_ZN3gmx20InMemoryDeserializerC1ENS_8ArrayRefIKcEEbNS_18EndianSwapBehaviorE(ptr noundef nonnull align 8 dereferenceable(16) %7, ptr %9, ptr %15, i1 noundef zeroext %18, i32 noundef 3)
  %19 = invoke fastcc noundef i32 @_ZL11do_tpx_bodyPN3gmx11ISerializerEP13TpxFileHeaderP10t_inputrecP7t_statePA3_fS9_P10gmx_mtop_t(ptr noundef nonnull %7, ptr noundef nonnull %0, ptr noundef %1, ptr noundef %2, ptr noundef %3, ptr noundef %4, ptr noundef %5)
          to label %20 unwind label %21

20:                                               ; preds = %6
  call void @_ZN3gmx20InMemoryDeserializerD1Ev(ptr noundef nonnull align 8 dereferenceable(16) %7) #22
  ret i32 %19

21:                                               ; preds = %6
  %22 = landingpad { ptr, i32 }
          cleanup
  call void @_ZN3gmx20InMemoryDeserializerD1Ev(ptr noundef nonnull align 8 dereferenceable(16) %7) #22
  resume { ptr, i32 } %22
}